target datalayout = "e-m:e-p270:32:32-p271:32:32-p272:64:64-i64:64-i128:128-f80:128-n8:16:32:64-S128"
target triple = "x86_64-pc-linux-gnu"

%"class.boost::container::pmr::monotonic_buffer_resource" = type { %"class.boost::container::pmr::memory_resource", %"class.boost::container::pmr::block_slist", ptr, i64, i64, ptr, i64 }
%"class.boost::container::pmr::memory_resource" = type { ptr }
%"class.boost::container::pmr::block_slist" = type { %"class.boost::container::pmr::block_slist_base", ptr }
%"class.boost::container::pmr::block_slist_base" = type { %"struct.boost::container::pmr::slist_node" }
%"struct.boost::container::pmr::slist_node" = type { ptr }
%"struct.boost::container::pmr::block_slist_header" = type { %"struct.boost::container::pmr::slist_node", i64 }

; Function Attrs: mustprogress nounwind uwtable
define linkonce_odr hidden void @_ZN5boost9container3pmr17slist_node_traits8set_nextERKPNS1_10slist_nodeES6_(ptr noundef nonnull align 8 dereferenceable(8) %0, ptr noundef nonnull align 8 dereferenceable(8) %1) #0 comdat align 2 {
  %3 = alloca ptr, align 8
  %4 = alloca ptr, align 8
  store ptr %0, ptr %3, align 8, !tbaa !3
  store ptr %1, ptr %4, align 8, !tbaa !3
  %5 = load ptr, ptr %4, align 8, !tbaa !3
  %6 = load ptr, ptr %5, align 8, !tbaa !3
  %7 = load ptr, ptr %3, align 8, !tbaa !3
  %8 = load ptr, ptr %7, align 8, !tbaa !3
  %9 = getelementptr inbounds nuw %"struct.boost::container::pmr::slist_node", ptr %8, i32 0, i32 0
  store ptr %6, ptr %9, align 8, !tbaa !22
  ret void
}

; Function Attrs: inlinehint mustprogress nounwind uwtable
define linkonce_odr hidden void @_ZN5boost9intrusive23linear_slist_algorithmsINS_9container3pmr17slist_node_traitsEE11init_headerEPNS3_10slist_nodeE(ptr noundef %0) #2 comdat align 2 personality ptr @__gxx_personality_v0 {
  %2 = alloca ptr, align 8
  %3 = alloca ptr, align 8
  store ptr %0, ptr %2, align 8, !tbaa !3
  call void @llvm.lifetime.start.p0(i64 8, ptr %3) #11
  store ptr null, ptr %3, align 8, !tbaa !3
  invoke void @_ZN5boost9container3pmr17slist_node_traits8set_nextERKPNS1_10slist_nodeES6_(ptr noundef nonnull align 8 dereferenceable(8) %2, ptr noundef nonnull align 8 dereferenceable(8) %3)
          to label %4 unwind label %5

4:                                                ; preds = %1
  call void @llvm.lifetime.end.p0(i64 8, ptr %3) #11
  ret void

5:                                                ; preds = %1
  %6 = landingpad { ptr, i32 }
          catch ptr null
  %7 = extractvalue { ptr, i32 } %6, 0
  call void @__clang_call_terminate(ptr %7) #12
  unreachable
}

; Function Attrs: mustprogress uwtable
define linkonce_odr hidden void @_ZN5boost9container3pmr15memory_resource10deallocateEPvmm(ptr noundef nonnull align 8 dereferenceable(8) %0, ptr noundef %1, i64 noundef %2, i64 noundef %3) #1 comdat align 2 {
  %5 = alloca ptr, align 8
  %6 = alloca ptr, align 8
  %7 = alloca i64, align 8
  %8 = alloca i64, align 8
  store ptr %0, ptr %5, align 8, !tbaa !3
  store ptr %1, ptr %6, align 8, !tbaa !3
  store i64 %2, ptr %7, align 8, !tbaa !14
  store i64 %3, ptr %8, align 8, !tbaa !14
  %9 = load ptr, ptr %5, align 8
  %10 = load ptr, ptr %6, align 8, !tbaa !3
  %11 = load i64, ptr %7, align 8, !tbaa !14
  %12 = load i64, ptr %8, align 8, !tbaa !14
  %13 = load ptr, ptr %9, align 8, !tbaa !15
  %14 = getelementptr inbounds ptr, ptr %13, i64 3
  %15 = load ptr, ptr %14, align 8
  call void %15(ptr noundef nonnull align 8 dereferenceable(8) %9, ptr noundef %10, i64 noundef %11, i64 noundef %12)
  ret void
}

; Function Attrs: mustprogress nounwind uwtable
define linkonce_odr hidden noundef ptr @_ZN5boost9container3pmr17slist_node_traits8get_nextEPKNS1_10slist_nodeE(ptr noundef %0) #0 comdat align 2 {
  %2 = alloca ptr, align 8
  store ptr %0, ptr %2, align 8, !tbaa !3
  %3 = load ptr, ptr %2, align 8, !tbaa !3
  %4 = getelementptr inbounds nuw %"struct.boost::container::pmr::slist_node", ptr %3, i32 0, i32 0
  %5 = load ptr, ptr %4, align 8, !tbaa !22
  ret ptr %5
}

; Function Attrs: mustprogress nounwind uwtable
define linkonce_odr hidden void @_ZN5boost9container3pmr16block_slist_baseINS1_18block_slist_headerEE7releaseERNS1_15memory_resourceE(ptr noundef nonnull align 8 dereferenceable(8) %0, ptr noundef nonnull align 8 dereferenceable(8) %1) #0 comdat align 2 personality ptr @__gxx_personality_v0 {
  %3 = alloca ptr, align 8
  %4 = alloca ptr, align 8
  %5 = alloca ptr, align 8
  %6 = alloca ptr, align 8
  %7 = alloca i64, align 8
  store ptr %0, ptr %3, align 8, !tbaa !3
  store ptr %1, ptr %4, align 8, !tbaa !3
  %8 = load ptr, ptr %3, align 8
  call void @llvm.lifetime.start.p0(i64 8, ptr %5) #11
  %9 = getelementptr inbounds nuw %"class.boost::container::pmr::block_slist_base", ptr %8, i32 0, i32 0
  %10 = invoke noundef ptr @_ZN5boost9container3pmr17slist_node_traits8get_nextEPKNS1_10slist_nodeE(ptr noundef %9)
          to label %11 unwind label %29

11:                                               ; preds = %2
  store ptr %10, ptr %5, align 8, !tbaa !3
  br label %12

12:                                               ; preds = %26, %11
  %13 = load ptr, ptr %5, align 8, !tbaa !3
  %14 = icmp ne ptr %13, null
  br i1 %14, label %15, label %27

15:                                               ; preds = %12
  call void @llvm.lifetime.start.p0(i64 8, ptr %6) #11
  %16 = load ptr, ptr %5, align 8, !tbaa !3
  store ptr %16, ptr %6, align 8, !tbaa !3
  %17 = load ptr, ptr %5, align 8, !tbaa !3
  %18 = invoke noundef ptr @_ZN5boost9container3pmr17slist_node_traits8get_nextEPKNS1_10slist_nodeE(ptr noundef %17)
          to label %19 unwind label %29

19:                                               ; preds = %15
  store ptr %18, ptr %5, align 8, !tbaa !3
  call void @llvm.lifetime.start.p0(i64 8, ptr %7) #11
  %20 = load ptr, ptr %6, align 8, !tbaa !3
  %21 = getelementptr inbounds nuw %"struct.boost::container::pmr::block_slist_header", ptr %20, i32 0, i32 1
  %22 = load i64, ptr %21, align 8, !tbaa !23
  store i64 %22, ptr %7, align 8, !tbaa !14
  %23 = load ptr, ptr %4, align 8, !tbaa !3
  %24 = load ptr, ptr %6, align 8, !tbaa !3
  %25 = load i64, ptr %7, align 8, !tbaa !14
  invoke void @_ZN5boost9container3pmr15memory_resource10deallocateEPvmm(ptr noundef nonnull align 8 dereferenceable(8) %23, ptr noundef %24, i64 noundef %25, i64 noundef 16)
          to label %26 unwind label %29

26:                                               ; preds = %19
  call void @llvm.lifetime.end.p0(i64 8, ptr %7) #11
  call void @llvm.lifetime.end.p0(i64 8, ptr %6) #11
  br label %12, !llvm.loop !25

27:                                               ; preds = %12
  %28 = getelementptr inbounds nuw %"class.boost::container::pmr::block_slist_base", ptr %8, i32 0, i32 0
  call void @_ZN5boost9intrusive23linear_slist_algorithmsINS_9container3pmr17slist_node_traitsEE11init_headerEPNS3_10slist_nodeE(ptr noundef %28) #11
  call void @llvm.lifetime.end.p0(i64 8, ptr %5) #11
  ret void

29:                                               ; preds = %19, %15, %2
  %30 = landingpad { ptr, i32 }
          catch ptr null
  %31 = extractvalue { ptr, i32 } %30, 0
  call void @__clang_call_terminate(ptr %31) #12
  unreachable
}

; Function Attrs: mustprogress nounwind uwtable
define linkonce_odr hidden void @_ZN5boost9container3pmr16block_slist_baseINS1_18block_slist_headerEED2Ev(ptr noundef nonnull align 8 dereferenceable(8) %0) unnamed_addr #0 comdat align 2 {
  %2 = alloca ptr, align 8
  store ptr %0, ptr %2, align 8, !tbaa !3
  ret void
}

; Function Attrs: mustprogress nounwind uwtable
define linkonce_odr hidden void @_ZN5boost9container3pmr11block_slist7releaseEv(ptr noundef nonnull align 8 dereferenceable(16) %0) #0 comdat align 2 {
  %2 = alloca ptr, align 8
  store ptr %0, ptr %2, align 8, !tbaa !3
  %3 = load ptr, ptr %2, align 8
  %4 = getelementptr inbounds nuw %"class.boost::container::pmr::block_slist", ptr %3, i32 0, i32 1
  %5 = load ptr, ptr %4, align 8, !tbaa !21
  call void @_ZN5boost9container3pmr16block_slist_baseINS1_18block_slist_headerEE7releaseERNS1_15memory_resourceE(ptr noundef nonnull align 8 dereferenceable(8) %3, ptr noundef nonnull align 8 dereferenceable(8) %5) #11
  ret void
}

; Function Attrs: mustprogress nounwind uwtable
define linkonce_odr hidden void @_ZN5boost9container3pmr15memory_resourceD2Ev(ptr noundef nonnull align 8 dereferenceable(8) %0) unnamed_addr #0 comdat align 2 {
  %2 = alloca ptr, align 8
  store ptr %0, ptr %2, align 8, !tbaa !3
  ret void
}

; Function Attrs: mustprogress nounwind uwtable
define linkonce_odr hidden void @_ZN5boost9container3pmr11block_slistD2Ev(ptr noundef nonnull align 8 dereferenceable(16) %0) unnamed_addr #0 comdat align 2 {
  %2 = alloca ptr, align 8
  store ptr %0, ptr %2, align 8, !tbaa !3
  %3 = load ptr, ptr %2, align 8
  call void @_ZN5boost9container3pmr11block_slist7releaseEv(ptr noundef nonnull align 8 dereferenceable(16) %3) #11
  call void @_ZN5boost9container3pmr16block_slist_baseINS1_18block_slist_headerEED2Ev(ptr noundef nonnull align 8 dereferenceable(8) %3) #11
  ret void
}

; Function Attrs: mustprogress nounwind uwtable
define void @_ZN5boost9container3pmr25monotonic_buffer_resource7releaseEv(ptr noundef nonnull align 8 dereferenceable(64) %0) #0 align 2 {
  %2 = alloca ptr, align 8
  store ptr %0, ptr %2, align 8, !tbaa !3
  %3 = load ptr, ptr %2, align 8
  %4 = getelementptr inbounds nuw %"class.boost::container::pmr::monotonic_buffer_resource", ptr %3, i32 0, i32 1
  call void @_ZN5boost9container3pmr11block_slist7releaseEv(ptr noundef nonnull align 8 dereferenceable(16) %4) #11
  %5 = getelementptr inbounds nuw %"class.boost::container::pmr::monotonic_buffer_resource", ptr %3, i32 0, i32 5
  %6 = load ptr, ptr %5, align 8, !tbaa !19
  %7 = getelementptr inbounds nuw %"class.boost::container::pmr::monotonic_buffer_resource", ptr %3, i32 0, i32 2
  store ptr %6, ptr %7, align 8, !tbaa !17
  %8 = getelementptr inbounds nuw %"class.boost::container::pmr::monotonic_buffer_resource", ptr %3, i32 0, i32 6
  %9 = load i64, ptr %8, align 8, !tbaa !20
  %10 = getelementptr inbounds nuw %"class.boost::container::pmr::monotonic_buffer_resource", ptr %3, i32 0, i32 3
  store i64 %9, ptr %10, align 8, !tbaa !18
  %11 = getelementptr inbounds nuw %"class.boost::container::pmr::monotonic_buffer_resource", ptr %3, i32 0, i32 4
  store i64 256, ptr %11, align 8, !tbaa !7
  ret void
}

; Function Attrs: mustprogress nounwind uwtable
define void @_ZN5boost9container3pmr25monotonic_buffer_resourceD2Ev(ptr noundef nonnull align 8 dereferenceable(64) %0) unnamed_addr #0 align 2 {
  %2 = alloca ptr, align 8
  store ptr %0, ptr %2, align 8, !tbaa !3
  %3 = load ptr, ptr %2, align 8
  store ptr getelementptr inbounds inrange(-16, 40) ({ [7 x ptr] }, ptr @_ZTVN5boost9container3pmr25monotonic_buffer_resourceE, i32 0, i32 0, i32 2), ptr %3, align 8, !tbaa !15
  call void @_ZN5boost9container3pmr25monotonic_buffer_resource7releaseEv(ptr noundef nonnull align 8 dereferenceable(64) %3) #11
  %4 = getelementptr inbounds nuw %"class.boost::container::pmr::monotonic_buffer_resource", ptr %3, i32 0, i32 1
  call void @_ZN5boost9container3pmr11block_slistD2Ev(ptr noundef nonnull align 8 dereferenceable(16) %4) #11
  call void @_ZN5boost9container3pmr15memory_resourceD2Ev(ptr noundef nonnull align 8 dereferenceable(8) %3) #11
  ret void
}